target datalayout = "e-m:e-p270:32:32-p271:32:32-p272:64:64-i64:64-i128:128-f80:128-n8:16:32:64-S128"
target triple = "x86_64-pc-linux-gnu"

@progname = internal global ptr null, align 8
@postmasterPID = internal global i32 -1, align 4
@.str.142 = private unnamed_addr constant [46 x i8] c"%s: could not send stop signal (PID: %d): %m\0A\00", align 1

; Function Attrs: nounwind uwtable
define internal void @trap_sigint_during_startup(i32 noundef %0) #0 {
  %2 = alloca i32, align 4
  store i32 %0, ptr %2, align 4
  %3 = load volatile i32, ptr @postmasterPID, align 4
  %4 = icmp ne i32 %3, -1
  br i1 %4, label %5, label %13

5:                                                ; preds = %1
  %6 = load volatile i32, ptr @postmasterPID, align 4
  %7 = call i32 @kill(i32 noundef %6, i32 noundef 2) #10
  %8 = icmp ne i32 %7, 0
  br i1 %8, label %9, label %12

9:                                                ; preds = %5
  %10 = load ptr, ptr @progname, align 8
  %11 = load volatile i32, ptr @postmasterPID, align 4
  call void (ptr, ...) @write_stderr(ptr noundef @.str.142, ptr noundef %10, i32 noundef %11)
  br label %12

12:                                               ; preds = %9, %5
  br label %13

13:                                               ; preds = %12, %1
  %14 = load i32, ptr %2, align 4
  call void @pqsignal_fe(i32 noundef %14, ptr noundef null)
  %15 = load i32, ptr %2, align 4
  %16 = call i32 @raise(i32 noundef %15) #10
  ret void
}