; Function Attrs: nounwind uwtable
define internal void @trap_sigint_during_startup(i32 noundef %0) #5 {
  %2 = load volatile i32, ptr @postmasterPID, align 4
  %.not = icmp eq i32 %2, -1
  br i1 %.not, label %9, label %3

3:                                                ; preds = %1
  %4 = load volatile i32, ptr @postmasterPID, align 4
  %5 = tail call i32 @kill(i32 noundef %4, i32 noundef 2) #17
  %.not2 = icmp eq i32 %5, 0
  br i1 %.not2, label %9, label %6

6:                                                ; preds = %3
  %7 = load ptr, ptr @progname, align 8
  %8 = load volatile i32, ptr @postmasterPID, align 4
  tail call void (ptr, ...) @write_stderr(ptr noundef nonnull @.str.142, ptr noundef %7, i32 noundef %8)
  br label %9

9:                                                ; preds = %3, %6, %1
  tail call void @pqsignal_fe(i32 noundef %0, ptr noundef null) #17
  %10 = tail call i32 @raise(i32 noundef %0) #17
  ret void
}